; Function Attrs: mustprogress nofree norecurse nosync nounwind willreturn memory(argmem: read) uwtable
define noundef zeroext i1 @_Z8LowAsciiPKc(ptr nocapture noundef readonly %0) local_unnamed_addr #9 {
  br label %2

2:                                                ; preds = %2, %1
  %.0 = phi i64 [ 0, %1 ], [ %5, %2 ]
  %3 = getelementptr inbounds i8, ptr %0, i64 %.0
  %4 = load i8, ptr %3, align 1
  %or.cond = icmp slt i8 %4, 1
  %5 = add i64 %.0, 1
  br i1 %or.cond, label %6, label %2, !llvm.loop !12

6:                                                ; preds = %2
  %.not = icmp eq i8 %4, 0
  ret i1 %.not
}